target datalayout = "e-m:e-p270:32:32-p271:32:32-p272:64:64-i64:64-i128:128-f80:128-n8:16:32:64-S128"
target triple = "x86_64-pc-linux-gnu"

%struct.AVFormatContext = type { ptr, ptr, ptr, ptr, ptr, i32, i32, ptr, i32, ptr, i32, ptr, ptr, i64, i64, i64, i32, i32, i32, i64, i64, ptr, i32, i32, ptr, i32, i32, i32, i32, ptr, i64, i32, i32, %struct.AVIOInterruptCB, i32, i32, i32, i32, i64, i32, i32, i32, i32, i32, i32, i32, i32, i32, i32, i32, i32, i64, i32, i32, i32, i32, i32, ptr, ptr, ptr, ptr, i32, ptr, ptr, ptr, ptr, i32, ptr, ptr, i64, ptr, ptr, ptr, i64 }
%struct.AVIOInterruptCB = type { ptr, ptr }
%struct.AVStream = type { ptr, i32, i32, ptr, ptr, %struct.AVRational, i64, i64, i64, i32, i32, %struct.AVRational, ptr, %struct.AVRational, %struct.AVPacket, i32, %struct.AVRational, i32 }
%struct.AVPacket = type { ptr, i64, i64, ptr, i32, i32, i32, ptr, i32, i64, i64, ptr, ptr, %struct.AVRational }
%struct.AVRational = type { i32, i32 }
%struct.FFStream = type { %struct.AVStream, ptr, i32, ptr, i32, ptr, i32, %struct.anon.1, i32, i32, %struct.FFFrac, ptr, ptr, i32, i32, i64, i64, i32, i32, i32, i64, i64, i64, i32, i64, i64, i64, i32, i32, [17 x i64], [17 x i8], [17 x i64], i64, i8, i8, %struct.AVRational, %struct.AVProbeData, ptr, i64, i32, i32, i32, ptr, i32, i32, i64, i64, ptr, %struct.AVRational }
%struct.anon.1 = type { ptr, i32 }
%struct.FFFrac = type { i64, i64, i64 }
%struct.AVProbeData = type { ptr, ptr, i32, ptr }
%struct.AVBSFContext = type { ptr, ptr, ptr, ptr, ptr, %struct.AVRational, %struct.AVRational }
%struct.AVBitStreamFilter = type { ptr, ptr, ptr }

@.str.42 = private unnamed_addr constant [50 x i8] c"Failed to send packet to filter %s for stream %d\0A\00", align 1
@.str.43 = private unnamed_addr constant [73 x i8] c"Error applying bitstream filters to an output packet for stream #%d: %s\0A\00", align 1

; Function Attrs: inlinehint nounwind uwtable
define internal ptr @av_make_error_string(ptr noundef %0, i64 noundef %1, i32 noundef %2) #3 {
  %4 = alloca ptr, align 8
  %5 = alloca i64, align 8
  %6 = alloca i32, align 4
  store ptr %0, ptr %4, align 8, !tbaa !12
  store i64 %1, ptr %5, align 8, !tbaa !114
  store i32 %2, ptr %6, align 4, !tbaa !16
  %7 = load i32, ptr %6, align 4, !tbaa !16
  %8 = load ptr, ptr %4, align 8, !tbaa !12
  %9 = load i64, ptr %5, align 8, !tbaa !114
  %10 = call i32 @av_strerror(i32 noundef %7, ptr noundef %8, i64 noundef %9)
  %11 = load ptr, ptr %4, align 8, !tbaa !12
  ret ptr %11
}

; Function Attrs: alwaysinline nounwind uwtable
define internal ptr @ffstream(ptr noundef %0) #4 {
  %2 = alloca ptr, align 8
  store ptr %0, ptr %2, align 8, !tbaa !51
  %3 = load ptr, ptr %2, align 8, !tbaa !51
  ret ptr %3
}

; Function Attrs: nounwind uwtable
define internal i32 @write_packets_from_bsfs(ptr noundef %0, ptr noundef %1, ptr noundef %2, i32 noundef %3) #0 {
  %5 = alloca i32, align 4
  %6 = alloca ptr, align 8
  %7 = alloca ptr, align 8
  %8 = alloca ptr, align 8
  %9 = alloca i32, align 4
  %10 = alloca ptr, align 8
  %11 = alloca ptr, align 8
  %12 = alloca i32, align 4
  %13 = alloca i32, align 4
  %14 = alloca [64 x i8], align 1
  store ptr %0, ptr %6, align 8, !tbaa !14
  store ptr %1, ptr %7, align 8, !tbaa !51
  store ptr %2, ptr %8, align 8, !tbaa !128
  store i32 %3, ptr %9, align 4, !tbaa !16
  call void @llvm.lifetime.start.p0(i64 8, ptr %10) #11
  %15 = load ptr, ptr %7, align 8, !tbaa !51
  %16 = call ptr @ffstream(ptr noundef %15)
  store ptr %16, ptr %10, align 8, !tbaa !53
  call void @llvm.lifetime.start.p0(i64 8, ptr %11) #11
  %17 = load ptr, ptr %10, align 8, !tbaa !53
  %18 = getelementptr inbounds nuw %struct.FFStream, ptr %17, i32 0, i32 3
  %19 = load ptr, ptr %18, align 8, !tbaa !166
  store ptr %19, ptr %11, align 8, !tbaa !171
  call void @llvm.lifetime.start.p0(i64 4, ptr %12) #11
  %20 = load ptr, ptr %11, align 8, !tbaa !171
  %21 = load ptr, ptr %8, align 8, !tbaa !128
  %22 = call i32 @av_bsf_send_packet(ptr noundef %20, ptr noundef %21)
  store i32 %22, ptr %12, align 4, !tbaa !16
  %23 = icmp slt i32 %22, 0
  br i1 %23, label %24, label %35

24:                                               ; preds = %4
  %25 = load ptr, ptr %6, align 8, !tbaa !14
  %26 = load ptr, ptr %11, align 8, !tbaa !171
  %27 = getelementptr inbounds nuw %struct.AVBSFContext, ptr %26, i32 0, i32 1
  %28 = load ptr, ptr %27, align 8, !tbaa !172
  %29 = getelementptr inbounds nuw %struct.AVBitStreamFilter, ptr %28, i32 0, i32 0
  %30 = load ptr, ptr %29, align 8, !tbaa !175
  %31 = load ptr, ptr %7, align 8, !tbaa !51
  %32 = getelementptr inbounds nuw %struct.AVStream, ptr %31, i32 0, i32 1
  %33 = load i32, ptr %32, align 8, !tbaa !177
  call void (ptr, i32, ptr, ...) @av_log(ptr noundef %25, i32 noundef 16, ptr noundef @.str.42, ptr noundef %30, i32 noundef %33)
  %34 = load i32, ptr %12, align 4, !tbaa !16
  store i32 %34, ptr %5, align 4
  store i32 1, ptr %13, align 4
  br label %94

35:                                               ; preds = %4
  br label %36

36:                                               ; preds = %89, %35
  %37 = load ptr, ptr %11, align 8, !tbaa !171
  %38 = load ptr, ptr %8, align 8, !tbaa !128
  %39 = call i32 @av_bsf_receive_packet(ptr noundef %37, ptr noundef %38)
  store i32 %39, ptr %12, align 4, !tbaa !16
  %40 = load i32, ptr %12, align 4, !tbaa !16
  %41 = icmp slt i32 %40, 0
  br i1 %41, label %42, label %68

42:                                               ; preds = %36
  %43 = load i32, ptr %12, align 4, !tbaa !16
  %44 = icmp eq i32 %43, -11
  br i1 %44, label %48, label %45

45:                                               ; preds = %42
  %46 = load i32, ptr %12, align 4, !tbaa !16
  %47 = icmp eq i32 %46, -541478725
  br i1 %47, label %48, label %49

48:                                               ; preds = %45, %42
  store i32 0, ptr %5, align 4
  store i32 1, ptr %13, align 4
  br label %94

49:                                               ; preds = %45
  %50 = load ptr, ptr %6, align 8, !tbaa !14
  %51 = load ptr, ptr %7, align 8, !tbaa !51
  %52 = getelementptr inbounds nuw %struct.AVStream, ptr %51, i32 0, i32 1
  %53 = load i32, ptr %52, align 8, !tbaa !177
  call void @llvm.memset.p0.i64(ptr align 1 %14, i8 0, i64 64, i1 false)
  %54 = getelementptr inbounds [64 x i8], ptr %14, i64 0, i64 0
  %55 = load i32, ptr %12, align 4, !tbaa !16
  %56 = call ptr @av_make_error_string(ptr noundef %54, i64 noundef 64, i32 noundef %55)
  call void (ptr, i32, ptr, ...) @av_log(ptr noundef %50, i32 noundef 16, ptr noundef @.str.43, i32 noundef %53, ptr noundef %56)
  %57 = load ptr, ptr %6, align 8, !tbaa !14
  %58 = getelementptr inbounds nuw %struct.AVFormatContext, ptr %57, i32 0, i32 32
  %59 = load i32, ptr %58, align 4, !tbaa !178
  %60 = and i32 %59, 8
  %61 = icmp ne i32 %60, 0
  br i1 %61, label %66, label %62

62:                                               ; preds = %49
  %63 = load i32, ptr %12, align 4, !tbaa !16
  %64 = icmp ne i32 %63, -12
  br i1 %64, label %65, label %66

65:                                               ; preds = %62
  br label %89

66:                                               ; preds = %62, %49
  %67 = load i32, ptr %12, align 4, !tbaa !16
  store i32 %67, ptr %5, align 4
  store i32 1, ptr %13, align 4
  br label %94

68:                                               ; preds = %36
  %69 = load ptr, ptr %8, align 8, !tbaa !128
  %70 = load ptr, ptr %11, align 8, !tbaa !171
  %71 = getelementptr inbounds nuw %struct.AVBSFContext, ptr %70, i32 0, i32 6
  %72 = load ptr, ptr %7, align 8, !tbaa !51
  %73 = getelementptr inbounds nuw %struct.AVStream, ptr %72, i32 0, i32 5
  %74 = load i64, ptr %71, align 8
  %75 = load i64, ptr %73, align 8
  call void @av_packet_rescale_ts(ptr noundef %69, i64 %74, i64 %75)
  %76 = load ptr, ptr %6, align 8, !tbaa !14
  %77 = load ptr, ptr %7, align 8, !tbaa !51
  %78 = load ptr, ptr %8, align 8, !tbaa !128
  %79 = load i32, ptr %9, align 4, !tbaa !16
  %80 = call i32 @write_packet_common(ptr noundef %76, ptr noundef %77, ptr noundef %78, i32 noundef %79)
  store i32 %80, ptr %12, align 4, !tbaa !16
  %81 = load i32, ptr %12, align 4, !tbaa !16
  %82 = icmp sge i32 %81, 0
  br i1 %82, label %83, label %88

83:                                               ; preds = %68
  %84 = load i32, ptr %9, align 4, !tbaa !16
  %85 = icmp ne i32 %84, 0
  br i1 %85, label %88, label %86

86:                                               ; preds = %83
  %87 = load ptr, ptr %8, align 8, !tbaa !128
  call void @av_packet_unref(ptr noundef %87)
  br label %88

88:                                               ; preds = %86, %83, %68
  br label %89

89:                                               ; preds = %88, %65
  %90 = load i32, ptr %12, align 4, !tbaa !16
  %91 = icmp sge i32 %90, 0
  br i1 %91, label %36, label %92, !llvm.loop !179

92:                                               ; preds = %89
  %93 = load i32, ptr %12, align 4, !tbaa !16
  store i32 %93, ptr %5, align 4
  store i32 1, ptr %13, align 4
  br label %94

94:                                               ; preds = %92, %66, %48, %24
  call void @llvm.lifetime.end.p0(i64 4, ptr %12) #11
  call void @llvm.lifetime.end.p0(i64 8, ptr %11) #11
  call void @llvm.lifetime.end.p0(i64 8, ptr %10) #11
  %95 = load i32, ptr %5, align 4
  ret i32 %95
}