; Function Attrs: nounwind uwtable
define internal fastcc range(i32 -2147483648, 1) i32 @write_packets_from_bsfs(ptr noundef %0, ptr noundef captures(none) %1, ptr noundef %2, i32 noundef range(i32 0, 2) %3) unnamed_addr #0 {
  %5 = alloca [64 x i8], align 1
  %6 = getelementptr inbounds nuw i8, ptr %1, i64 232
  %7 = load ptr, ptr %6, align 8, !tbaa !149
  %8 = tail call i32 @av_bsf_send_packet(ptr noundef %7, ptr noundef %2) #13
  %9 = icmp slt i32 %8, 0
  br i1 %9, label %21, label %.preheader

.preheader:                                       ; preds = %4
  %10 = getelementptr inbounds nuw i8, ptr %7, i64 48
  %11 = getelementptr inbounds nuw i8, ptr %1, i64 32
  %.not = icmp eq i32 %3, 0
  br i1 %.not, label %.preheader.split.preheader, label %.preheader.split.us

.preheader.split.preheader:                       ; preds = %.preheader
  %12 = tail call i32 @av_bsf_receive_packet(ptr noundef %7, ptr noundef %2) #13
  %13 = icmp slt i32 %12, 0
  br i1 %13, label %.split.us, label %.lr.ph

.preheader.split.us:                              ; preds = %.preheader, %16
  %14 = tail call i32 @av_bsf_receive_packet(ptr noundef %7, ptr noundef %2) #13
  %15 = icmp slt i32 %14, 0
  br i1 %15, label %.split.us, label %16

16:                                               ; preds = %.preheader.split.us
  %17 = load i64, ptr %10, align 8
  %18 = load i64, ptr %11, align 8
  tail call void @av_packet_rescale_ts(ptr noundef %2, i64 %17, i64 %18) #13
  %19 = tail call fastcc i32 @write_packet_common(ptr noundef %0, ptr noundef nonnull %1, ptr noundef %2, i32 noundef %3)
  %20 = icmp sgt i32 %19, -1
  br i1 %20, label %.preheader.split.us, label %.thread, !llvm.loop !154

21:                                               ; preds = %4
  %22 = getelementptr inbounds nuw i8, ptr %7, i64 8
  %23 = load ptr, ptr %22, align 8, !tbaa !155
  %24 = load ptr, ptr %23, align 8, !tbaa !158
  %25 = getelementptr inbounds nuw i8, ptr %1, i64 8
  %26 = load i32, ptr %25, align 8, !tbaa !160
  tail call void (ptr, i32, ptr, ...) @av_log(ptr noundef %0, i32 noundef 16, ptr noundef nonnull @.str.42, ptr noundef %24, i32 noundef %26) #13
  br label %.thread

.split.us:                                        ; preds = %.preheader.split.us, %.preheader.split, %.preheader.split.preheader
  %.us-phi = phi i32 [ %12, %.preheader.split.preheader ], [ %35, %.preheader.split ], [ %14, %.preheader.split.us ]
  switch i32 %.us-phi, label %27 [
    i32 -11, label %.thread
    i32 -541478725, label %.thread
  ]

27:                                               ; preds = %.split.us
  %28 = getelementptr inbounds nuw i8, ptr %1, i64 8
  %29 = load i32, ptr %28, align 8, !tbaa !160
  call void @llvm.memset.p0.i64(ptr noundef nonnull align 1 dereferenceable(64) %5, i8 0, i64 64, i1 false)
  %30 = call i32 @av_strerror(i32 noundef range(i32 -2147483648, 0) %.us-phi, ptr noundef nonnull %5, i64 noundef 64) #13
  call void (ptr, i32, ptr, ...) @av_log(ptr noundef %0, i32 noundef 16, ptr noundef nonnull @.str.43, i32 noundef %29, ptr noundef nonnull %5) #13
  br label %.thread

.lr.ph:                                           ; preds = %.preheader.split.preheader, %.preheader.split
  %31 = load i64, ptr %10, align 8
  %32 = load i64, ptr %11, align 8
  tail call void @av_packet_rescale_ts(ptr noundef %2, i64 %31, i64 %32) #13
  %33 = tail call fastcc i32 @write_packet_common(ptr noundef %0, ptr noundef nonnull %1, ptr noundef %2, i32 noundef 0)
  %34 = icmp slt i32 %33, 0
  br i1 %34, label %.thread, label %.preheader.split

.preheader.split:                                 ; preds = %.lr.ph
  tail call void @av_packet_unref(ptr noundef %2) #13
  %35 = tail call i32 @av_bsf_receive_packet(ptr noundef %7, ptr noundef %2) #13
  %36 = icmp slt i32 %35, 0
  br i1 %36, label %.split.us, label %.lr.ph, !llvm.loop !154

.thread:                                          ; preds = %16, %.lr.ph, %27, %.split.us, %.split.us, %21
  %.036 = phi i32 [ %8, %21 ], [ 0, %.split.us ], [ 0, %.split.us ], [ %.us-phi, %27 ], [ %33, %.lr.ph ], [ %19, %16 ]
  ret i32 %.036
}